; Function Attrs: nounwind uwtable
define ptr @l_Lean_observing_x3f___rarg(ptr noundef %0, ptr noundef %1, ptr noundef %2, ptr noundef %3) #0 {
  %5 = getelementptr inbounds nuw i8, ptr %0, i64 16
  %6 = load ptr, ptr %5, align 8, !tbaa !4
  %7 = ptrtoint ptr %6 to i64
  %8 = and i64 %7, 1
  %.not = icmp eq i64 %8, 0
  br i1 %.not, label %9, label %lean_inc.exit20

9:                                                ; preds = %4
  %.val.i = load i32, ptr %6, align 4, !tbaa !8
  %10 = icmp sgt i32 %.val.i, 0
  br i1 %10, label %11, label %13, !prof !11

11:                                               ; preds = %9
  %12 = add nuw i32 %.val.i, 1
  store i32 %12, ptr %6, align 4, !tbaa !8
  br label %lean_inc.exit20

13:                                               ; preds = %9
  %.not.i = icmp eq i32 %.val.i, 0
  br i1 %.not.i, label %lean_inc.exit20, label %14

14:                                               ; preds = %13
  tail call void @lean_inc_ref_cold(ptr noundef nonnull %6) #3
  br label %lean_inc.exit20

lean_inc.exit20:                                  ; preds = %14, %13, %11, %4
  %15 = getelementptr inbounds nuw i8, ptr %1, i64 8
  %16 = load ptr, ptr %15, align 8, !tbaa !4
  %17 = ptrtoint ptr %16 to i64
  %18 = and i64 %17, 1
  %.not27 = icmp eq i64 %18, 0
  br i1 %.not27, label %19, label %lean_inc.exit19

19:                                               ; preds = %lean_inc.exit20
  %.val.i21 = load i32, ptr %16, align 4, !tbaa !8
  %20 = icmp sgt i32 %.val.i21, 0
  br i1 %20, label %21, label %23, !prof !11

21:                                               ; preds = %19
  %22 = add nuw i32 %.val.i21, 1
  store i32 %22, ptr %16, align 4, !tbaa !8
  br label %lean_inc.exit19

23:                                               ; preds = %19
  %.not.i22 = icmp eq i32 %.val.i21, 0
  br i1 %.not.i22, label %lean_inc.exit19, label %24

24:                                               ; preds = %23
  tail call void @lean_inc_ref_cold(ptr noundef nonnull %16) #3
  br label %lean_inc.exit19

lean_inc.exit19:                                  ; preds = %24, %23, %21, %lean_inc.exit20
  br i1 %.not, label %25, label %lean_inc.exit

25:                                               ; preds = %lean_inc.exit19
  %.val.i24 = load i32, ptr %6, align 4, !tbaa !8
  %26 = icmp sgt i32 %.val.i24, 0
  br i1 %26, label %27, label %29, !prof !11

27:                                               ; preds = %25
  %28 = add nuw i32 %.val.i24, 1
  store i32 %28, ptr %6, align 4, !tbaa !8
  br label %lean_inc.exit

29:                                               ; preds = %25
  %.not.i25 = icmp eq i32 %.val.i24, 0
  br i1 %.not.i25, label %lean_inc.exit, label %30

30:                                               ; preds = %29
  tail call void @lean_inc_ref_cold(ptr noundef nonnull %6) #3
  br label %lean_inc.exit

lean_inc.exit:                                    ; preds = %30, %29, %27, %lean_inc.exit19
  tail call void @lean_inc_heartbeat() #3
  %31 = tail call noalias ptr @mi_malloc_small(i64 noundef 64) #3
  %32 = icmp eq ptr %31, null
  br i1 %32, label %33, label %lean_alloc_closure.exit

33:                                               ; preds = %lean_inc.exit
  tail call void @lean_internal_panic_out_of_memory() #4
  unreachable

lean_alloc_closure.exit:                          ; preds = %lean_inc.exit
  %34 = getelementptr inbounds nuw i8, ptr %31, i64 4
  store i32 1, ptr %31, align 4, !tbaa !8
  store i32 -184549312, ptr %34, align 4
  %35 = getelementptr inbounds nuw i8, ptr %31, i64 8
  store ptr @l_Lean_observing_x3f___rarg___lambda__3, ptr %35, align 8, !tbaa !4
  %36 = getelementptr inbounds nuw i8, ptr %31, i64 16
  store i16 6, ptr %36, align 8, !tbaa !12
  %37 = getelementptr inbounds nuw i8, ptr %31, i64 18
  store i16 5, ptr %37, align 2, !tbaa !12
  %38 = getelementptr inbounds nuw i8, ptr %31, i64 24
  store ptr %2, ptr %38, align 8, !tbaa !4
  %39 = getelementptr inbounds nuw i8, ptr %31, i64 32
  store ptr %0, ptr %39, align 8, !tbaa !4
  %40 = getelementptr inbounds nuw i8, ptr %31, i64 40
  store ptr %6, ptr %40, align 8, !tbaa !4
  %41 = getelementptr inbounds nuw i8, ptr %31, i64 48
  store ptr %3, ptr %41, align 8, !tbaa !4
  %42 = getelementptr inbounds nuw i8, ptr %31, i64 56
  store ptr %1, ptr %42, align 8, !tbaa !4
  %43 = tail call ptr @lean_apply_4(ptr noundef %6, ptr noundef nonnull inttoptr (i64 1 to ptr), ptr noundef nonnull inttoptr (i64 1 to ptr), ptr noundef %16, ptr noundef nonnull %31) #3
  ret ptr %43
}